target datalayout = "e-m:e-p270:32:32-p271:32:32-p272:64:64-i64:64-i128:128-f80:128-n8:16:32:64-S128"
target triple = "x86_64-unknown-linux-gnu"

%"struct.facebook::velox::ByteRange" = type { ptr, i32, i32 }
%"class.facebook::velox::ByteInputStream" = type { ptr, %"class.std::vector.38", ptr }
%"class.std::vector.38" = type { %"struct.std::_Vector_base.39" }
%"struct.std::_Vector_base.39" = type { %"struct.std::_Vector_base<facebook::velox::ByteRange, std::allocator<facebook::velox::ByteRange>>::_Vector_impl" }
%"struct.std::_Vector_base<facebook::velox::ByteRange, std::allocator<facebook::velox::ByteRange>>::_Vector_impl" = type { %"struct.std::_Vector_base<facebook::velox::ByteRange, std::allocator<facebook::velox::ByteRange>>::_Vector_impl_data" }
%"struct.std::_Vector_base<facebook::velox::ByteRange, std::allocator<facebook::velox::ByteRange>>::_Vector_impl_data" = type { ptr, ptr, ptr }
%"struct.facebook::velox::Timestamp" = type { i64, i64 }
%class.anon.548 = type { ptr, ptr, ptr }

; Function Attrs: mustprogress nounwind uwtable
define linkonce_odr void @_ZN8facebook5velox9TimestampC2Elm(ptr noundef nonnull align 8 dereferenceable(16) %this, i64 noundef %seconds, i64 noundef %nanos) unnamed_addr #1 comdat align 2 {
entry:
  %this.addr = alloca ptr, align 8
  %seconds.addr = alloca i64, align 8
  %nanos.addr = alloca i64, align 8
  store ptr %this, ptr %this.addr, align 8
  store i64 %seconds, ptr %seconds.addr, align 8
  store i64 %nanos, ptr %nanos.addr, align 8
  %this1 = load ptr, ptr %this.addr, align 8
  %seconds_ = getelementptr inbounds %"struct.facebook::velox::Timestamp", ptr %this1, i32 0, i32 0
  %0 = load i64, ptr %seconds.addr, align 8
  store i64 %0, ptr %seconds_, align 8
  %nanos_ = getelementptr inbounds %"struct.facebook::velox::Timestamp", ptr %this1, i32 0, i32 1
  %1 = load i64, ptr %nanos.addr, align 8
  store i64 %1, ptr %nanos_, align 8
  ret void
}

; Function Attrs: mustprogress uwtable
define linkonce_odr noundef i64 @_ZN8facebook5velox15ByteInputStream4readImEET_v(ptr noundef nonnull align 8 dereferenceable(40) %this) #0 comdat align 2 {
entry:
  %retval = alloca i64, align 8
  %this.addr = alloca ptr, align 8
  %value = alloca i64, align 8
  %i = alloca i32, align 4
  store ptr %this, ptr %this.addr, align 8
  %this1 = load ptr, ptr %this.addr, align 8
  %current_ = getelementptr inbounds %"class.facebook::velox::ByteInputStream", ptr %this1, i32 0, i32 2
  %0 = load ptr, ptr %current_, align 8
  %position = getelementptr inbounds %"struct.facebook::velox::ByteRange", ptr %0, i32 0, i32 2
  %1 = load i32, ptr %position, align 4
  %conv = sext i32 %1 to i64
  %add = add i64 %conv, 8
  %current_2 = getelementptr inbounds %"class.facebook::velox::ByteInputStream", ptr %this1, i32 0, i32 2
  %2 = load ptr, ptr %current_2, align 8
  %size = getelementptr inbounds %"struct.facebook::velox::ByteRange", ptr %2, i32 0, i32 1
  %3 = load i32, ptr %size, align 8
  %conv3 = sext i32 %3 to i64
  %cmp = icmp ule i64 %add, %conv3
  br i1 %cmp, label %if.then, label %if.end

if.then:                                          ; preds = %entry
  %current_4 = getelementptr inbounds %"class.facebook::velox::ByteInputStream", ptr %this1, i32 0, i32 2
  %4 = load ptr, ptr %current_4, align 8
  %position5 = getelementptr inbounds %"struct.facebook::velox::ByteRange", ptr %4, i32 0, i32 2
  %5 = load i32, ptr %position5, align 4
  %conv6 = sext i32 %5 to i64
  %add7 = add i64 %conv6, 8
  %conv8 = trunc i64 %add7 to i32
  store i32 %conv8, ptr %position5, align 4
  %current_9 = getelementptr inbounds %"class.facebook::velox::ByteInputStream", ptr %this1, i32 0, i32 2
  %6 = load ptr, ptr %current_9, align 8
  %buffer = getelementptr inbounds %"struct.facebook::velox::ByteRange", ptr %6, i32 0, i32 0
  %7 = load ptr, ptr %buffer, align 8
  %current_10 = getelementptr inbounds %"class.facebook::velox::ByteInputStream", ptr %this1, i32 0, i32 2
  %8 = load ptr, ptr %current_10, align 8
  %position11 = getelementptr inbounds %"struct.facebook::velox::ByteRange", ptr %8, i32 0, i32 2
  %9 = load i32, ptr %position11, align 4
  %idx.ext = sext i32 %9 to i64
  %add.ptr = getelementptr inbounds i8, ptr %7, i64 %idx.ext
  %add.ptr12 = getelementptr inbounds i8, ptr %add.ptr, i64 -8
  %10 = load i64, ptr %add.ptr12, align 8
  store i64 %10, ptr %retval, align 8
  br label %return

if.end:                                           ; preds = %entry
  store i64 0, ptr %value, align 8
  store i32 0, ptr %i, align 4
  br label %for.cond

for.cond:                                         ; preds = %for.inc, %if.end
  %11 = load i32, ptr %i, align 4
  %conv13 = sext i32 %11 to i64
  %cmp14 = icmp ult i64 %conv13, 8
  br i1 %cmp14, label %for.body, label %for.end

for.body:                                         ; preds = %for.cond
  %call = call noundef zeroext i8 @_ZN8facebook5velox15ByteInputStream8readByteEv(ptr noundef nonnull align 8 dereferenceable(40) %this1)
  %conv15 = zext i8 %call to i64
  %12 = load i32, ptr %i, align 4
  %mul = mul nsw i32 %12, 8
  %sh_prom = zext i32 %mul to i64
  %shl = shl i64 %conv15, %sh_prom
  %13 = load i64, ptr %value, align 8
  %or = or i64 %13, %shl
  store i64 %or, ptr %value, align 8
  br label %for.inc

for.inc:                                          ; preds = %for.body
  %14 = load i32, ptr %i, align 4
  %inc = add nsw i32 %14, 1
  store i32 %inc, ptr %i, align 4
  br label %for.cond, !llvm.loop !289

for.end:                                          ; preds = %for.cond
  %15 = load i64, ptr %value, align 8
  store i64 %15, ptr %retval, align 8
  br label %return

return:                                           ; preds = %for.end, %if.then
  %16 = load i64, ptr %retval, align 8
  ret i64 %16
}

; Function Attrs: mustprogress uwtable
define linkonce_odr noundef i64 @_ZN8facebook5velox15ByteInputStream4readIlEET_v(ptr noundef nonnull align 8 dereferenceable(40) %this) #0 comdat align 2 {
entry:
  %retval = alloca i64, align 8
  %this.addr = alloca ptr, align 8
  %value = alloca i64, align 8
  %i = alloca i32, align 4
  store ptr %this, ptr %this.addr, align 8
  %this1 = load ptr, ptr %this.addr, align 8
  %current_ = getelementptr inbounds %"class.facebook::velox::ByteInputStream", ptr %this1, i32 0, i32 2
  %0 = load ptr, ptr %current_, align 8
  %position = getelementptr inbounds %"struct.facebook::velox::ByteRange", ptr %0, i32 0, i32 2
  %1 = load i32, ptr %position, align 4
  %conv = sext i32 %1 to i64
  %add = add i64 %conv, 8
  %current_2 = getelementptr inbounds %"class.facebook::velox::ByteInputStream", ptr %this1, i32 0, i32 2
  %2 = load ptr, ptr %current_2, align 8
  %size = getelementptr inbounds %"struct.facebook::velox::ByteRange", ptr %2, i32 0, i32 1
  %3 = load i32, ptr %size, align 8
  %conv3 = sext i32 %3 to i64
  %cmp = icmp ule i64 %add, %conv3
  br i1 %cmp, label %if.then, label %if.end

if.then:                                          ; preds = %entry
  %current_4 = getelementptr inbounds %"class.facebook::velox::ByteInputStream", ptr %this1, i32 0, i32 2
  %4 = load ptr, ptr %current_4, align 8
  %position5 = getelementptr inbounds %"struct.facebook::velox::ByteRange", ptr %4, i32 0, i32 2
  %5 = load i32, ptr %position5, align 4
  %conv6 = sext i32 %5 to i64
  %add7 = add i64 %conv6, 8
  %conv8 = trunc i64 %add7 to i32
  store i32 %conv8, ptr %position5, align 4
  %current_9 = getelementptr inbounds %"class.facebook::velox::ByteInputStream", ptr %this1, i32 0, i32 2
  %6 = load ptr, ptr %current_9, align 8
  %buffer = getelementptr inbounds %"struct.facebook::velox::ByteRange", ptr %6, i32 0, i32 0
  %7 = load ptr, ptr %buffer, align 8
  %current_10 = getelementptr inbounds %"class.facebook::velox::ByteInputStream", ptr %this1, i32 0, i32 2
  %8 = load ptr, ptr %current_10, align 8
  %position11 = getelementptr inbounds %"struct.facebook::velox::ByteRange", ptr %8, i32 0, i32 2
  %9 = load i32, ptr %position11, align 4
  %idx.ext = sext i32 %9 to i64
  %add.ptr = getelementptr inbounds i8, ptr %7, i64 %idx.ext
  %add.ptr12 = getelementptr inbounds i8, ptr %add.ptr, i64 -8
  %10 = load i64, ptr %add.ptr12, align 8
  store i64 %10, ptr %retval, align 8
  br label %return

if.end:                                           ; preds = %entry
  store i64 0, ptr %value, align 8
  store i32 0, ptr %i, align 4
  br label %for.cond

for.cond:                                         ; preds = %for.inc, %if.end
  %11 = load i32, ptr %i, align 4
  %conv13 = sext i32 %11 to i64
  %cmp14 = icmp ult i64 %conv13, 8
  br i1 %cmp14, label %for.body, label %for.end

for.body:                                         ; preds = %for.cond
  %call = call noundef zeroext i8 @_ZN8facebook5velox15ByteInputStream8readByteEv(ptr noundef nonnull align 8 dereferenceable(40) %this1)
  %conv15 = zext i8 %call to i64
  %12 = load i32, ptr %i, align 4
  %mul = mul nsw i32 %12, 8
  %sh_prom = zext i32 %mul to i64
  %shl = shl i64 %conv15, %sh_prom
  %13 = load i64, ptr %value, align 8
  %or = or i64 %13, %shl
  store i64 %or, ptr %value, align 8
  br label %for.inc

for.inc:                                          ; preds = %for.body
  %14 = load i32, ptr %i, align 4
  %inc = add nsw i32 %14, 1
  store i32 %inc, ptr %i, align 4
  br label %for.cond, !llvm.loop !11

for.end:                                          ; preds = %for.cond
  %15 = load i64, ptr %value, align 8
  store i64 %15, ptr %retval, align 8
  br label %return

return:                                           ; preds = %for.end, %if.then
  %16 = load i64, ptr %retval, align 8
  ret i64 %16
}

; Function Attrs: mustprogress uwtable
define internal { i64, i64 } @_ZN8facebook5velox10serializer6presto12_GLOBAL__N_121readLosslessTimestampEPNS0_15ByteInputStreamE(ptr noundef %source) #0 {
entry:
  %retval = alloca %"struct.facebook::velox::Timestamp", align 8
  %source.addr = alloca ptr, align 8
  %seconds = alloca i64, align 8
  %nanos = alloca i64, align 8
  store ptr %source, ptr %source.addr, align 8
  %0 = load ptr, ptr %source.addr, align 8
  %call = call noundef i64 @_ZN8facebook5velox15ByteInputStream4readIlEET_v(ptr noundef nonnull align 8 dereferenceable(40) %0)
  store i64 %call, ptr %seconds, align 8
  %1 = load ptr, ptr %source.addr, align 8
  %call1 = call noundef i64 @_ZN8facebook5velox15ByteInputStream4readImEET_v(ptr noundef nonnull align 8 dereferenceable(40) %1)
  store i64 %call1, ptr %nanos, align 8
  %2 = load i64, ptr %seconds, align 8
  %3 = load i64, ptr %nanos, align 8
  call void @_ZN8facebook5velox9TimestampC2Elm(ptr noundef nonnull align 8 dereferenceable(16) %retval, i64 noundef %2, i64 noundef %3)
  %4 = load { i64, i64 }, ptr %retval, align 8
  ret { i64, i64 } %4
}

; Function Attrs: mustprogress nounwind uwtable
define linkonce_odr void @_ZN8facebook5velox9TimestampC2Ev(ptr noundef nonnull align 8 dereferenceable(16) %this) unnamed_addr #1 comdat align 2 {
entry:
  %this.addr = alloca ptr, align 8
  store ptr %this, ptr %this.addr, align 8
  %this1 = load ptr, ptr %this.addr, align 8
  %seconds_ = getelementptr inbounds %"struct.facebook::velox::Timestamp", ptr %this1, i32 0, i32 0
  store i64 0, ptr %seconds_, align 8
  %nanos_ = getelementptr inbounds %"struct.facebook::velox::Timestamp", ptr %this1, i32 0, i32 1
  store i64 0, ptr %nanos_, align 8
  ret void
}

; Function Attrs: mustprogress uwtable
define internal void @"_ZZN8facebook5velox10serializer6presto12_GLOBAL__N_127readLosslessTimestampValuesEPNS0_15ByteInputStreamEiiN5boost13intrusive_ptrINS0_6BufferEEEiS9_ENK3$_0clEi"(ptr noundef nonnull align 8 dereferenceable(24) %this, i32 noundef %row) #0 align 2 {
entry:
  %this.addr = alloca ptr, align 8
  %row.addr = alloca i32, align 4
  %ref.tmp = alloca %"struct.facebook::velox::Timestamp", align 8
  %ref.tmp2 = alloca %"struct.facebook::velox::Timestamp", align 8
  store ptr %this, ptr %this.addr, align 8
  store i32 %row, ptr %row.addr, align 4
  %this1 = load ptr, ptr %this.addr, align 8
  br label %for.cond

for.cond:                                         ; preds = %for.inc, %entry
  %0 = getelementptr inbounds %class.anon.548, ptr %this1, i32 0, i32 0
  %1 = load ptr, ptr %0, align 8
  %2 = load i32, ptr %1, align 4
  %3 = load i32, ptr %row.addr, align 4
  %cmp = icmp slt i32 %2, %3
  br i1 %cmp, label %for.body, label %for.end

for.body:                                         ; preds = %for.cond
  call void @_ZN8facebook5velox9TimestampC2Ev(ptr noundef nonnull align 8 dereferenceable(16) %ref.tmp)
  %4 = getelementptr inbounds %class.anon.548, ptr %this1, i32 0, i32 1
  %5 = load ptr, ptr %4, align 8
  %6 = load ptr, ptr %5, align 8
  %7 = getelementptr inbounds %class.anon.548, ptr %this1, i32 0, i32 0
  %8 = load ptr, ptr %7, align 8
  %9 = load i32, ptr %8, align 4
  %idxprom = sext i32 %9 to i64
  %arrayidx = getelementptr inbounds %"struct.facebook::velox::Timestamp", ptr %6, i64 %idxprom
  call void @llvm.memcpy.p0.p0.i64(ptr align 8 %arrayidx, ptr align 8 %ref.tmp, i64 16, i1 false)
  br label %for.inc

for.inc:                                          ; preds = %for.body
  %10 = getelementptr inbounds %class.anon.548, ptr %this1, i32 0, i32 0
  %11 = load ptr, ptr %10, align 8
  %12 = load i32, ptr %11, align 4
  %inc = add nsw i32 %12, 1
  store i32 %inc, ptr %11, align 4
  br label %for.cond, !llvm.loop !288

for.end:                                          ; preds = %for.cond
  %13 = getelementptr inbounds %class.anon.548, ptr %this1, i32 0, i32 2
  %14 = load ptr, ptr %13, align 8
  %15 = load ptr, ptr %14, align 8
  %call = call { i64, i64 } @_ZN8facebook5velox10serializer6presto12_GLOBAL__N_121readLosslessTimestampEPNS0_15ByteInputStreamE(ptr noundef %15)
  %16 = getelementptr inbounds { i64, i64 }, ptr %ref.tmp2, i32 0, i32 0
  %17 = extractvalue { i64, i64 } %call, 0
  store i64 %17, ptr %16, align 8
  %18 = getelementptr inbounds { i64, i64 }, ptr %ref.tmp2, i32 0, i32 1
  %19 = extractvalue { i64, i64 } %call, 1
  store i64 %19, ptr %18, align 8
  %20 = getelementptr inbounds %class.anon.548, ptr %this1, i32 0, i32 1
  %21 = load ptr, ptr %20, align 8
  %22 = load ptr, ptr %21, align 8
  %23 = load i32, ptr %row.addr, align 4
  %idxprom3 = sext i32 %23 to i64
  %arrayidx4 = getelementptr inbounds %"struct.facebook::velox::Timestamp", ptr %22, i64 %idxprom3
  call void @llvm.memcpy.p0.p0.i64(ptr align 8 %arrayidx4, ptr align 8 %ref.tmp2, i64 16, i1 false)
  %24 = load i32, ptr %row.addr, align 4
  %add = add nsw i32 %24, 1
  %25 = getelementptr inbounds %class.anon.548, ptr %this1, i32 0, i32 0
  %26 = load ptr, ptr %25, align 8
  store i32 %add, ptr %26, align 4
  ret void
}