; Function Attrs: mustprogress uwtable
define internal fastcc void @"_ZZN8facebook5velox10serializer6presto12_GLOBAL__N_127readLosslessTimestampValuesEPNS0_15ByteInputStreamEiiN5boost13intrusive_ptrINS0_6BufferEEEiS9_ENK3$_0clEi"(ptr nocapture noundef nonnull readonly align 8 dereferenceable(24) %this, i32 noundef %row) unnamed_addr #0 align 2 {
entry:
  %0 = load ptr, ptr %this, align 8
  %1 = load i32, ptr %0, align 4
  %cmp3 = icmp slt i32 %1, %row
  br i1 %cmp3, label %for.body.lr.ph, label %for.end

for.body.lr.ph:                                   ; preds = %entry
  %2 = getelementptr inbounds i8, ptr %this, i64 8
  br label %for.body

for.body:                                         ; preds = %for.body.lr.ph, %for.body
  %3 = phi i32 [ %1, %for.body.lr.ph ], [ %9, %for.body ]
  %4 = load ptr, ptr %2, align 8
  %5 = load ptr, ptr %4, align 8
  %idxprom = sext i32 %3 to i64
  %arrayidx = getelementptr inbounds %"struct.facebook::velox::Timestamp", ptr %5, i64 %idxprom
  tail call void @llvm.memset.p0.i64(ptr noundef nonnull align 8 dereferenceable(16) %arrayidx, i8 0, i64 16, i1 false)
  %6 = load ptr, ptr %this, align 8
  %7 = load i32, ptr %6, align 4
  %inc = add nsw i32 %7, 1
  store i32 %inc, ptr %6, align 4
  %8 = load ptr, ptr %this, align 8
  %9 = load i32, ptr %8, align 4
  %cmp = icmp slt i32 %9, %row
  br i1 %cmp, label %for.body, label %for.end, !llvm.loop !457

for.end:                                          ; preds = %for.body, %entry
  %10 = getelementptr inbounds i8, ptr %this, i64 16
  %11 = load ptr, ptr %10, align 8
  %12 = load ptr, ptr %11, align 8
  %current_.i.i = getelementptr inbounds i8, ptr %12, i64 32
  %13 = load ptr, ptr %current_.i.i, align 8
  %position.i.i = getelementptr inbounds i8, ptr %13, i64 12
  %14 = load i32, ptr %position.i.i, align 4
  %conv.i.i = sext i32 %14 to i64
  %add.i.i = add nsw i64 %conv.i.i, 8
  %size.i.i = getelementptr inbounds i8, ptr %13, i64 8
  %15 = load i32, ptr %size.i.i, align 8
  %conv3.i.i = sext i32 %15 to i64
  %cmp.not.i.i = icmp ugt i64 %add.i.i, %conv3.i.i
  br i1 %cmp.not.i.i, label %for.body.i.i, label %if.then.i.i

if.then.i.i:                                      ; preds = %for.end
  %conv8.i.i = trunc i64 %add.i.i to i32
  store i32 %conv8.i.i, ptr %position.i.i, align 4
  %16 = load ptr, ptr %current_.i.i, align 8
  %17 = load ptr, ptr %16, align 8
  %position11.i.i = getelementptr inbounds i8, ptr %16, i64 12
  %18 = load i32, ptr %position11.i.i, align 4
  %idx.ext.i.i = sext i32 %18 to i64
  %add.ptr.i.i = getelementptr inbounds i8, ptr %17, i64 %idx.ext.i.i
  %add.ptr12.i.i = getelementptr inbounds i8, ptr %add.ptr.i.i, i64 -8
  %19 = load i64, ptr %add.ptr12.i.i, align 8
  br label %_ZN8facebook5velox15ByteInputStream4readIlEET_v.exit.i

for.body.i.i:                                     ; preds = %for.end, %for.body.i.i
  %indvars.iv.i.i = phi i64 [ %indvars.iv.next.i.i, %for.body.i.i ], [ 0, %for.end ]
  %value.04.i.i = phi i64 [ %or.i.i, %for.body.i.i ], [ 0, %for.end ]
  %call.i.i = tail call noundef zeroext i8 @_ZN8facebook5velox15ByteInputStream8readByteEv(ptr noundef nonnull align 8 dereferenceable(40) %12)
  %conv15.i.i = zext i8 %call.i.i to i64
  %20 = shl nuw nsw i64 %indvars.iv.i.i, 3
  %shl.i.i = shl nuw i64 %conv15.i.i, %20
  %or.i.i = or i64 %shl.i.i, %value.04.i.i
  %indvars.iv.next.i.i = add nuw nsw i64 %indvars.iv.i.i, 1
  %exitcond.not.i.i = icmp eq i64 %indvars.iv.next.i.i, 8
  br i1 %exitcond.not.i.i, label %_ZN8facebook5velox15ByteInputStream4readIlEET_v.exit.loopexit.i, label %for.body.i.i, !llvm.loop !123

_ZN8facebook5velox15ByteInputStream4readIlEET_v.exit.loopexit.i: ; preds = %for.body.i.i
  %.pre.i = load ptr, ptr %current_.i.i, align 8
  %position.i3.phi.trans.insert.i = getelementptr inbounds i8, ptr %.pre.i, i64 12
  %.pre25.i = load i32, ptr %position.i3.phi.trans.insert.i, align 4
  %.pre26.i = sext i32 %.pre25.i to i64
  br label %_ZN8facebook5velox15ByteInputStream4readIlEET_v.exit.i

_ZN8facebook5velox15ByteInputStream4readIlEET_v.exit.i: ; preds = %_ZN8facebook5velox15ByteInputStream4readIlEET_v.exit.loopexit.i, %if.then.i.i
  %conv.i4.pre-phi.i = phi i64 [ %.pre26.i, %_ZN8facebook5velox15ByteInputStream4readIlEET_v.exit.loopexit.i ], [ %idx.ext.i.i, %if.then.i.i ]
  %21 = phi ptr [ %.pre.i, %_ZN8facebook5velox15ByteInputStream4readIlEET_v.exit.loopexit.i ], [ %16, %if.then.i.i ]
  %retval.0.i.i = phi i64 [ %or.i.i, %_ZN8facebook5velox15ByteInputStream4readIlEET_v.exit.loopexit.i ], [ %19, %if.then.i.i ]
  %add.i5.i = add nsw i64 %conv.i4.pre-phi.i, 8
  %size.i6.i = getelementptr inbounds i8, ptr %21, i64 8
  %22 = load i32, ptr %size.i6.i, align 8
  %conv3.i7.i = sext i32 %22 to i64
  %cmp.not.i8.i = icmp ugt i64 %add.i5.i, %conv3.i7.i
  br i1 %cmp.not.i8.i, label %for.body.i16.i, label %if.then.i9.i

if.then.i9.i:                                     ; preds = %_ZN8facebook5velox15ByteInputStream4readIlEET_v.exit.i
  %position.i3.i = getelementptr inbounds i8, ptr %21, i64 12
  %conv8.i10.i = trunc i64 %add.i5.i to i32
  store i32 %conv8.i10.i, ptr %position.i3.i, align 4
  %23 = load ptr, ptr %current_.i.i, align 8
  %24 = load ptr, ptr %23, align 8
  %position11.i11.i = getelementptr inbounds i8, ptr %23, i64 12
  %25 = load i32, ptr %position11.i11.i, align 4
  %idx.ext.i12.i = sext i32 %25 to i64
  %add.ptr.i13.i = getelementptr inbounds i8, ptr %24, i64 %idx.ext.i12.i
  %add.ptr12.i14.i = getelementptr inbounds i8, ptr %add.ptr.i13.i, i64 -8
  %26 = load i64, ptr %add.ptr12.i14.i, align 8
  br label %_ZN8facebook5velox10serializer6presto12_GLOBAL__N_121readLosslessTimestampEPNS0_15ByteInputStreamE.exit

for.body.i16.i:                                   ; preds = %_ZN8facebook5velox15ByteInputStream4readIlEET_v.exit.i, %for.body.i16.i
  %indvars.iv.i17.i = phi i64 [ %indvars.iv.next.i23.i, %for.body.i16.i ], [ 0, %_ZN8facebook5velox15ByteInputStream4readIlEET_v.exit.i ]
  %value.04.i18.i = phi i64 [ %or.i22.i, %for.body.i16.i ], [ 0, %_ZN8facebook5velox15ByteInputStream4readIlEET_v.exit.i ]
  %call.i19.i = tail call noundef zeroext i8 @_ZN8facebook5velox15ByteInputStream8readByteEv(ptr noundef nonnull align 8 dereferenceable(40) %12)
  %conv15.i20.i = zext i8 %call.i19.i to i64
  %27 = shl nuw nsw i64 %indvars.iv.i17.i, 3
  %shl.i21.i = shl nuw i64 %conv15.i20.i, %27
  %or.i22.i = or i64 %shl.i21.i, %value.04.i18.i
  %indvars.iv.next.i23.i = add nuw nsw i64 %indvars.iv.i17.i, 1
  %exitcond.not.i24.i = icmp eq i64 %indvars.iv.next.i23.i, 8
  br i1 %exitcond.not.i24.i, label %_ZN8facebook5velox10serializer6presto12_GLOBAL__N_121readLosslessTimestampEPNS0_15ByteInputStreamE.exit, label %for.body.i16.i, !llvm.loop !350

_ZN8facebook5velox10serializer6presto12_GLOBAL__N_121readLosslessTimestampEPNS0_15ByteInputStreamE.exit: ; preds = %for.body.i16.i, %if.then.i9.i
  %retval.0.i15.i = phi i64 [ %26, %if.then.i9.i ], [ %or.i22.i, %for.body.i16.i ]
  %28 = getelementptr inbounds i8, ptr %this, i64 8
  %29 = load ptr, ptr %28, align 8
  %30 = load ptr, ptr %29, align 8
  %idxprom3 = sext i32 %row to i64
  %arrayidx4 = getelementptr inbounds %"struct.facebook::velox::Timestamp", ptr %30, i64 %idxprom3
  store i64 %retval.0.i.i, ptr %arrayidx4, align 8
  %ref.tmp2.sroa.2.0.arrayidx4.sroa_idx = getelementptr inbounds i8, ptr %arrayidx4, i64 8
  store i64 %retval.0.i15.i, ptr %ref.tmp2.sroa.2.0.arrayidx4.sroa_idx, align 8
  %add = add nsw i32 %row, 1
  %31 = load ptr, ptr %this, align 8
  store i32 %add, ptr %31, align 4
  ret void
}